; Function Attrs: nounwind uwtable
define internal fastcc void @ftp_pl_insert_finfo(ptr noundef %0, ptr noundef %1) unnamed_addr #0 {
  %3 = getelementptr inbounds nuw i8, ptr %0, i64 5040
  %4 = load ptr, ptr %3, align 8, !tbaa !28
  %5 = getelementptr inbounds nuw i8, ptr %4, i64 48
  %6 = load ptr, ptr %5, align 8, !tbaa !16
  %7 = getelementptr inbounds nuw i8, ptr %4, i64 16
  %8 = load ptr, ptr %6, align 8, !tbaa !91
  %9 = getelementptr inbounds nuw i8, ptr %1, i64 160
  %10 = tail call ptr @Curl_dyn_ptr(ptr noundef nonnull %9) #8
  %11 = getelementptr inbounds nuw i8, ptr %8, i64 40
  %12 = load i64, ptr %11, align 8, !tbaa !115
  %13 = getelementptr inbounds nuw i8, ptr %10, i64 %12
  store ptr %13, ptr %1, align 8, !tbaa !119
  %14 = getelementptr inbounds nuw i8, ptr %8, i64 56
  %15 = load i64, ptr %14, align 8, !tbaa !112
  %.not = icmp eq i64 %15, 0
  %16 = getelementptr inbounds nuw i8, ptr %10, i64 %15
  %spec.select = select i1 %.not, ptr null, ptr %16
  %17 = getelementptr inbounds nuw i8, ptr %1, i64 56
  %18 = getelementptr inbounds nuw i8, ptr %1, i64 80
  store ptr %spec.select, ptr %18, align 8, !tbaa !120
  %19 = getelementptr inbounds nuw i8, ptr %8, i64 72
  %20 = load i64, ptr %19, align 8, !tbaa !108
  %.not49 = icmp eq i64 %20, 0
  %21 = getelementptr inbounds nuw i8, ptr %10, i64 %20
  %22 = select i1 %.not49, ptr null, ptr %21
  %23 = getelementptr inbounds nuw i8, ptr %1, i64 64
  store ptr %22, ptr %23, align 8, !tbaa !121
  %24 = getelementptr inbounds nuw i8, ptr %8, i64 80
  %25 = load i64, ptr %24, align 8, !tbaa !116
  %.not50 = icmp eq i64 %25, 0
  %26 = getelementptr inbounds nuw i8, ptr %10, i64 %25
  %27 = select i1 %.not50, ptr null, ptr %26
  %28 = getelementptr inbounds nuw i8, ptr %1, i64 88
  store ptr %27, ptr %28, align 8, !tbaa !122
  %29 = getelementptr inbounds nuw i8, ptr %8, i64 64
  %30 = load i64, ptr %29, align 8, !tbaa !114
  %31 = getelementptr inbounds nuw i8, ptr %10, i64 %30
  store ptr %31, ptr %17, align 8, !tbaa !123
  %32 = getelementptr inbounds nuw i8, ptr %8, i64 48
  %33 = load i64, ptr %32, align 8, !tbaa !111
  %.not51 = icmp eq i64 %33, 0
  %34 = getelementptr inbounds nuw i8, ptr %10, i64 %33
  %35 = select i1 %.not51, ptr null, ptr %34
  %36 = getelementptr inbounds nuw i8, ptr %1, i64 72
  store ptr %35, ptr %36, align 8, !tbaa !124
  %37 = getelementptr inbounds nuw i8, ptr %0, i64 2504
  %38 = load ptr, ptr %37, align 8, !tbaa !125
  %.not52 = icmp eq ptr %38, null
  %spec.store.select = select i1 %.not52, ptr @Curl_fnmatch, ptr %38
  tail call void @Curl_set_in_callback(ptr noundef %0, i1 noundef zeroext true) #8
  %39 = getelementptr inbounds nuw i8, ptr %0, i64 2512
  %40 = load ptr, ptr %39, align 8, !tbaa !126
  %41 = getelementptr inbounds nuw i8, ptr %4, i64 8
  %42 = load ptr, ptr %41, align 8, !tbaa !19
  %43 = load ptr, ptr %1, align 8, !tbaa !119
  %44 = tail call i32 %spec.store.select(ptr noundef %40, ptr noundef %42, ptr noundef %43) #8
  %45 = icmp eq i32 %44, 0
  br i1 %45, label %46, label %.critedge57

46:                                               ; preds = %2
  %47 = getelementptr inbounds nuw i8, ptr %1, i64 8
  %48 = load i32, ptr %47, align 8, !tbaa !102
  %49 = icmp eq i32 %48, 2
  br i1 %49, label %50, label %.critedge

50:                                               ; preds = %46
  %51 = load ptr, ptr %28, align 8, !tbaa !122
  %.not53 = icmp eq ptr %51, null
  br i1 %.not53, label %.critedge, label %52

52:                                               ; preds = %50
  %53 = tail call ptr @strstr(ptr noundef nonnull dereferenceable(1) %51, ptr noundef nonnull dereferenceable(1) @.str.5) #9
  %.not54 = icmp eq ptr %53, null
  tail call void @Curl_set_in_callback(ptr noundef nonnull %0, i1 noundef zeroext false) #8
  br i1 %.not54, label %54, label %56

.critedge:                                        ; preds = %46, %50
  tail call void @Curl_set_in_callback(ptr noundef nonnull %0, i1 noundef zeroext false) #8
  br label %54

54:                                               ; preds = %.critedge, %52
  %55 = getelementptr inbounds nuw i8, ptr %1, i64 128
  tail call void @Curl_llist_append(ptr noundef nonnull %7, ptr noundef nonnull %1, ptr noundef nonnull %55) #8
  br label %57

.critedge57:                                      ; preds = %2
  tail call void @Curl_set_in_callback(ptr noundef nonnull %0, i1 noundef zeroext false) #8
  br label %56

56:                                               ; preds = %.critedge57, %52
  tail call void @Curl_fileinfo_cleanup(ptr noundef nonnull %1) #8
  br label %57

57:                                               ; preds = %56, %54
  %58 = load ptr, ptr %6, align 8, !tbaa !91
  %59 = getelementptr inbounds nuw i8, ptr %58, i64 16
  store ptr null, ptr %59, align 8, !tbaa !22
  ret void
}